target datalayout = "e-m:e-p270:32:32-p271:32:32-p272:64:64-i64:64-i128:128-f80:128-n8:16:32:64-S128"
target triple = "x86_64-unknown-linux-gnu"

%"class.zmq::mailbox_t" = type <{ %"class.zmq::i_mailbox", %"class.zmq::ypipe_t", %"class.zmq::signaler_t", [4 x i8], %"class.zmq::mutex_t", i8, [7 x i8] }>
%"class.zmq::i_mailbox" = type { ptr }
%"class.zmq::ypipe_t" = type { %"class.zmq::ypipe_base_t", %"class.zmq::yqueue_t", ptr, ptr, ptr, %"class.zmq::atomic_ptr_t.0" }
%"class.zmq::ypipe_base_t" = type { ptr }
%"class.zmq::yqueue_t" = type { ptr, i32, ptr, i32, ptr, i32, %"class.zmq::atomic_ptr_t" }
%"class.zmq::atomic_ptr_t" = type { %"struct.std::atomic" }
%"struct.std::atomic" = type { %"struct.std::__atomic_base" }
%"struct.std::__atomic_base" = type { ptr }
%"class.zmq::atomic_ptr_t.0" = type { %"struct.std::atomic.1" }
%"struct.std::atomic.1" = type { %"struct.std::__atomic_base.2" }
%"struct.std::__atomic_base.2" = type { ptr }
%"class.zmq::signaler_t" = type { i32, i32, i32 }
%"class.zmq::mutex_t" = type <{ %union.pthread_mutex_t, %union.pthread_mutexattr_t, [4 x i8] }>
%union.pthread_mutex_t = type { %struct.__pthread_mutex_s }
%struct.__pthread_mutex_s = type { i32, i32, i32, i32, i32, i16, i16, %struct.__pthread_internal_list }
%struct.__pthread_internal_list = type { ptr, ptr }
%union.pthread_mutexattr_t = type { i32 }
%"struct.zmq::yqueue_t<zmq::command_t, 16>::chunk_t" = type { [16 x %"struct.zmq::command_t"], ptr, ptr, [48 x i8] }
%"struct.zmq::command_t" = type { ptr, i32, %"union.zmq::command_t::args_t", [24 x i8] }
%"union.zmq::command_t::args_t" = type { %struct.anon.19 }
%struct.anon.19 = type { i64, ptr, ptr }

@stderr = external global ptr, align 8
@.str.3 = private unnamed_addr constant [12 x i8] c"%s (%s:%d)\0A\00", align 1
@.str.5 = private unnamed_addr constant [105 x i8] c"generated/home/dtcxzyw/WorkSpace/Projects/compilers/llvm-opt-benchmark/bench/libzmq/libzmq/src/mutex.hpp\00", align 1

; Function Attrs: mustprogress nounwind uwtable
define linkonce_odr noundef ptr @_ZNSt6atomicIPN3zmq8yqueue_tINS0_9command_tELi16ELm64EE7chunk_tEE8exchangeES5_St12memory_order(ptr noundef nonnull align 8 dereferenceable(8) %this, ptr noundef %__p, i32 noundef %__m) #1 comdat align 2 {
entry:
  %this.addr.i = alloca ptr, align 8
  %__p.addr.i = alloca ptr, align 8
  %__m.addr.i = alloca i32, align 4
  %.atomictmp.i = alloca ptr, align 8
  %atomic-temp.i = alloca ptr, align 8
  %this.addr = alloca ptr, align 8
  %__p.addr = alloca ptr, align 8
  %__m.addr = alloca i32, align 4
  store ptr %this, ptr %this.addr, align 8
  store ptr %__p, ptr %__p.addr, align 8
  store i32 %__m, ptr %__m.addr, align 4
  %this1 = load ptr, ptr %this.addr, align 8
  %_M_b = getelementptr inbounds %"struct.std::atomic", ptr %this1, i32 0, i32 0
  %0 = load ptr, ptr %__p.addr, align 8
  %1 = load i32, ptr %__m.addr, align 4
  store ptr %_M_b, ptr %this.addr.i, align 8
  store ptr %0, ptr %__p.addr.i, align 8
  store i32 %1, ptr %__m.addr.i, align 4
  %this1.i = load ptr, ptr %this.addr.i, align 8
  %2 = load i32, ptr %__m.addr.i, align 4
  %3 = load ptr, ptr %__p.addr.i, align 8
  store ptr %3, ptr %.atomictmp.i, align 8
  switch i32 %2, label %monotonic.i [
    i32 1, label %acquire.i
    i32 2, label %acquire.i
    i32 3, label %release.i
    i32 4, label %acqrel.i
    i32 5, label %seqcst.i
  ]

monotonic.i:                                      ; preds = %entry
  %4 = load i64, ptr %.atomictmp.i, align 8
  %5 = atomicrmw xchg ptr %this1.i, i64 %4 monotonic, align 8
  store i64 %5, ptr %atomic-temp.i, align 8
  br label %_ZNSt13__atomic_baseIPN3zmq8yqueue_tINS0_9command_tELi16ELm64EE7chunk_tEE8exchangeES5_St12memory_order.exit

acquire.i:                                        ; preds = %entry, %entry
  %6 = load i64, ptr %.atomictmp.i, align 8
  %7 = atomicrmw xchg ptr %this1.i, i64 %6 acquire, align 8
  store i64 %7, ptr %atomic-temp.i, align 8
  br label %_ZNSt13__atomic_baseIPN3zmq8yqueue_tINS0_9command_tELi16ELm64EE7chunk_tEE8exchangeES5_St12memory_order.exit

release.i:                                        ; preds = %entry
  %8 = load i64, ptr %.atomictmp.i, align 8
  %9 = atomicrmw xchg ptr %this1.i, i64 %8 release, align 8
  store i64 %9, ptr %atomic-temp.i, align 8
  br label %_ZNSt13__atomic_baseIPN3zmq8yqueue_tINS0_9command_tELi16ELm64EE7chunk_tEE8exchangeES5_St12memory_order.exit

acqrel.i:                                         ; preds = %entry
  %10 = load i64, ptr %.atomictmp.i, align 8
  %11 = atomicrmw xchg ptr %this1.i, i64 %10 acq_rel, align 8
  store i64 %11, ptr %atomic-temp.i, align 8
  br label %_ZNSt13__atomic_baseIPN3zmq8yqueue_tINS0_9command_tELi16ELm64EE7chunk_tEE8exchangeES5_St12memory_order.exit

seqcst.i:                                         ; preds = %entry
  %12 = load i64, ptr %.atomictmp.i, align 8
  %13 = atomicrmw xchg ptr %this1.i, i64 %12 seq_cst, align 8
  store i64 %13, ptr %atomic-temp.i, align 8
  br label %_ZNSt13__atomic_baseIPN3zmq8yqueue_tINS0_9command_tELi16ELm64EE7chunk_tEE8exchangeES5_St12memory_order.exit

_ZNSt13__atomic_baseIPN3zmq8yqueue_tINS0_9command_tELi16ELm64EE7chunk_tEE8exchangeES5_St12memory_order.exit: ; preds = %seqcst.i, %acqrel.i, %release.i, %acquire.i, %monotonic.i
  %14 = load ptr, ptr %atomic-temp.i, align 8
  ret ptr %14
}

; Function Attrs: mustprogress nounwind uwtable
define linkonce_odr noundef ptr @_ZN3zmq12atomic_ptr_tINS_8yqueue_tINS_9command_tELi16ELm64EE7chunk_tEE4xchgEPS4_(ptr noundef nonnull align 8 dereferenceable(8) %this, ptr noundef %val_) #1 comdat align 2 {
entry:
  %this.addr = alloca ptr, align 8
  %val_.addr = alloca ptr, align 8
  store ptr %this, ptr %this.addr, align 8
  store ptr %val_, ptr %val_.addr, align 8
  %this1 = load ptr, ptr %this.addr, align 8
  %_ptr = getelementptr inbounds %"class.zmq::atomic_ptr_t", ptr %this1, i32 0, i32 0
  %0 = load ptr, ptr %val_.addr, align 8
  %call = call noundef ptr @_ZNSt6atomicIPN3zmq8yqueue_tINS0_9command_tELi16ELm64EE7chunk_tEE8exchangeES5_St12memory_order(ptr noundef nonnull align 8 dereferenceable(8) %_ptr, ptr noundef %0, i32 noundef 4) #9
  ret ptr %call
}

; Function Attrs: mustprogress nounwind uwtable
define linkonce_odr void @_ZN3zmq12ypipe_base_tINS_9command_tEED2Ev(ptr noundef nonnull align 8 dereferenceable(8) %this) unnamed_addr #1 comdat align 2 {
entry:
  %this.addr = alloca ptr, align 8
  store ptr %this, ptr %this.addr, align 8
  ret void
}

; Function Attrs: mustprogress nounwind uwtable
define linkonce_odr void @_ZN3zmq8yqueue_tINS_9command_tELi16ELm64EED2Ev(ptr noundef nonnull align 8 dereferenceable(56) %this) unnamed_addr #1 comdat align 2 {
entry:
  %this.addr = alloca ptr, align 8
  %o = alloca ptr, align 8
  %sc = alloca ptr, align 8
  store ptr %this, ptr %this.addr, align 8
  %this1 = load ptr, ptr %this.addr, align 8
  br label %while.cond

while.cond:                                       ; preds = %if.end, %entry
  br label %while.body

while.body:                                       ; preds = %while.cond
  %_begin_chunk = getelementptr inbounds %"class.zmq::yqueue_t", ptr %this1, i32 0, i32 0
  %0 = load ptr, ptr %_begin_chunk, align 8
  %_end_chunk = getelementptr inbounds %"class.zmq::yqueue_t", ptr %this1, i32 0, i32 4
  %1 = load ptr, ptr %_end_chunk, align 8
  %cmp = icmp eq ptr %0, %1
  br i1 %cmp, label %if.then, label %if.end

if.then:                                          ; preds = %while.body
  %_begin_chunk2 = getelementptr inbounds %"class.zmq::yqueue_t", ptr %this1, i32 0, i32 0
  %2 = load ptr, ptr %_begin_chunk2, align 8
  call void @free(ptr noundef %2) #9
  br label %while.end

if.end:                                           ; preds = %while.body
  %_begin_chunk3 = getelementptr inbounds %"class.zmq::yqueue_t", ptr %this1, i32 0, i32 0
  %3 = load ptr, ptr %_begin_chunk3, align 8
  store ptr %3, ptr %o, align 8
  %_begin_chunk4 = getelementptr inbounds %"class.zmq::yqueue_t", ptr %this1, i32 0, i32 0
  %4 = load ptr, ptr %_begin_chunk4, align 8
  %next = getelementptr inbounds %"struct.zmq::yqueue_t<zmq::command_t, 16>::chunk_t", ptr %4, i32 0, i32 2
  %5 = load ptr, ptr %next, align 8
  %_begin_chunk5 = getelementptr inbounds %"class.zmq::yqueue_t", ptr %this1, i32 0, i32 0
  store ptr %5, ptr %_begin_chunk5, align 8
  %6 = load ptr, ptr %o, align 8
  call void @free(ptr noundef %6) #9
  br label %while.cond, !llvm.loop !4

while.end:                                        ; preds = %if.then
  %_spare_chunk = getelementptr inbounds %"class.zmq::yqueue_t", ptr %this1, i32 0, i32 6
  %call = call noundef ptr @_ZN3zmq12atomic_ptr_tINS_8yqueue_tINS_9command_tELi16ELm64EE7chunk_tEE4xchgEPS4_(ptr noundef nonnull align 8 dereferenceable(8) %_spare_chunk, ptr noundef null) #9
  store ptr %call, ptr %sc, align 8
  %7 = load ptr, ptr %sc, align 8
  call void @free(ptr noundef %7) #9
  ret void
}

; Function Attrs: mustprogress nounwind uwtable
define linkonce_odr void @_ZN3zmq9i_mailboxD2Ev(ptr noundef nonnull align 8 dereferenceable(8) %this) unnamed_addr #1 comdat align 2 {
entry:
  %this.addr = alloca ptr, align 8
  store ptr %this, ptr %this.addr, align 8
  ret void
}

; Function Attrs: mustprogress nounwind uwtable
define linkonce_odr void @_ZN3zmq7ypipe_tINS_9command_tELi16EED2Ev(ptr noundef nonnull align 8 dereferenceable(96) %this) unnamed_addr #1 comdat align 2 {
entry:
  %this.addr = alloca ptr, align 8
  store ptr %this, ptr %this.addr, align 8
  %this1 = load ptr, ptr %this.addr, align 8
  %_queue = getelementptr inbounds %"class.zmq::ypipe_t", ptr %this1, i32 0, i32 1
  call void @_ZN3zmq8yqueue_tINS_9command_tELi16ELm64EED2Ev(ptr noundef nonnull align 8 dereferenceable(56) %_queue) #9
  call void @_ZN3zmq12ypipe_base_tINS_9command_tEED2Ev(ptr noundef nonnull align 8 dereferenceable(8) %this1) #9
  ret void
}

; Function Attrs: mustprogress uwtable
define linkonce_odr void @_ZN3zmq7mutex_t6unlockEv(ptr noundef nonnull align 8 dereferenceable(44) %this) #0 comdat align 2 {
entry:
  %this.addr = alloca ptr, align 8
  %rc = alloca i32, align 4
  %errstr = alloca ptr, align 8
  store ptr %this, ptr %this.addr, align 8
  %this1 = load ptr, ptr %this.addr, align 8
  %_mutex = getelementptr inbounds %"class.zmq::mutex_t", ptr %this1, i32 0, i32 0
  %call = call i32 @pthread_mutex_unlock(ptr noundef %_mutex) #9
  store i32 %call, ptr %rc, align 4
  br label %do.body

do.body:                                          ; preds = %entry
  %0 = load i32, ptr %rc, align 4
  %conv = sext i32 %0 to i64
  %tobool = icmp ne i64 %conv, 0
  br i1 %tobool, label %if.then, label %if.end

if.then:                                          ; preds = %do.body
  %1 = load i32, ptr %rc, align 4
  %call2 = call ptr @strerror(i32 noundef %1) #9
  store ptr %call2, ptr %errstr, align 8
  %2 = load ptr, ptr @stderr, align 8
  %3 = load ptr, ptr %errstr, align 8
  %call3 = call i32 (ptr, ptr, ...) @fprintf(ptr noundef %2, ptr noundef @.str.3, ptr noundef %3, ptr noundef @.str.5, i32 noundef 125)
  %4 = load ptr, ptr @stderr, align 8
  %call4 = call i32 @fflush(ptr noundef %4)
  %5 = load ptr, ptr %errstr, align 8
  call void @_ZN3zmq9zmq_abortEPKc(ptr noundef %5)
  br label %if.end

if.end:                                           ; preds = %if.then, %do.body
  br label %do.end

do.end:                                           ; preds = %if.end
  ret void
}

; Function Attrs: mustprogress uwtable
define linkonce_odr void @_ZN3zmq7mutex_t4lockEv(ptr noundef nonnull align 8 dereferenceable(44) %this) #0 comdat align 2 {
entry:
  %this.addr = alloca ptr, align 8
  %rc = alloca i32, align 4
  %errstr = alloca ptr, align 8
  store ptr %this, ptr %this.addr, align 8
  %this1 = load ptr, ptr %this.addr, align 8
  %_mutex = getelementptr inbounds %"class.zmq::mutex_t", ptr %this1, i32 0, i32 0
  %call = call i32 @pthread_mutex_lock(ptr noundef %_mutex) #9
  store i32 %call, ptr %rc, align 4
  br label %do.body

do.body:                                          ; preds = %entry
  %0 = load i32, ptr %rc, align 4
  %conv = sext i32 %0 to i64
  %tobool = icmp ne i64 %conv, 0
  br i1 %tobool, label %if.then, label %if.end

if.then:                                          ; preds = %do.body
  %1 = load i32, ptr %rc, align 4
  %call2 = call ptr @strerror(i32 noundef %1) #9
  store ptr %call2, ptr %errstr, align 8
  %2 = load ptr, ptr @stderr, align 8
  %3 = load ptr, ptr %errstr, align 8
  %call3 = call i32 (ptr, ptr, ...) @fprintf(ptr noundef %2, ptr noundef @.str.3, ptr noundef %3, ptr noundef @.str.5, i32 noundef 109)
  %4 = load ptr, ptr @stderr, align 8
  %call4 = call i32 @fflush(ptr noundef %4)
  %5 = load ptr, ptr %errstr, align 8
  call void @_ZN3zmq9zmq_abortEPKc(ptr noundef %5)
  br label %if.end

if.end:                                           ; preds = %if.then, %do.body
  br label %do.end

do.end:                                           ; preds = %if.end
  ret void
}

; Function Attrs: mustprogress nounwind uwtable
define void @_ZN3zmq9mailbox_tD2Ev(ptr noundef nonnull align 8 dereferenceable(176) %this) unnamed_addr #1 align 2 personality ptr @__gxx_personality_v0 {
entry:
  %this.addr = alloca ptr, align 8
  store ptr %this, ptr %this.addr, align 8
  %this1 = load ptr, ptr %this.addr, align 8
  %_sync = getelementptr inbounds %"class.zmq::mailbox_t", ptr %this1, i32 0, i32 4
  invoke void @_ZN3zmq7mutex_t4lockEv(ptr noundef nonnull align 8 dereferenceable(44) %_sync)
          to label %invoke.cont unwind label %terminate.lpad

invoke.cont:                                      ; preds = %entry
  %_sync2 = getelementptr inbounds %"class.zmq::mailbox_t", ptr %this1, i32 0, i32 4
  invoke void @_ZN3zmq7mutex_t6unlockEv(ptr noundef nonnull align 8 dereferenceable(44) %_sync2)
          to label %invoke.cont3 unwind label %terminate.lpad

invoke.cont3:                                     ; preds = %invoke.cont
  %_sync4 = getelementptr inbounds %"class.zmq::mailbox_t", ptr %this1, i32 0, i32 4
  call void @_ZN3zmq7mutex_tD2Ev(ptr noundef nonnull align 8 dereferenceable(44) %_sync4) #9
  %_signaler = getelementptr inbounds %"class.zmq::mailbox_t", ptr %this1, i32 0, i32 2
  call void @_ZN3zmq10signaler_tD1Ev(ptr noundef nonnull align 4 dereferenceable(12) %_signaler) #9
  %_cpipe = getelementptr inbounds %"class.zmq::mailbox_t", ptr %this1, i32 0, i32 1
  call void @_ZN3zmq7ypipe_tINS_9command_tELi16EED2Ev(ptr noundef nonnull align 8 dereferenceable(96) %_cpipe) #9
  call void @_ZN3zmq9i_mailboxD2Ev(ptr noundef nonnull align 8 dereferenceable(8) %this1) #9
  ret void

terminate.lpad:                                   ; preds = %invoke.cont, %entry
  %0 = landingpad { ptr, i32 }
          catch ptr null
  %1 = extractvalue { ptr, i32 } %0, 0
  call void @__clang_call_terminate(ptr %1) #10
  unreachable
}