; Function Attrs: mustprogress nounwind uwtable
define void @_ZN3zmq9mailbox_tD2Ev(ptr noundef nonnull align 8 dereferenceable(176) %this) unnamed_addr #2 align 2 personality ptr @__gxx_personality_v0 {
entry:
  %_sync = getelementptr inbounds i8, ptr %this, i64 120
  %call.i = tail call i32 @pthread_mutex_lock(ptr noundef nonnull %_sync) #12
  %tobool.not.i = icmp eq i32 %call.i, 0
  br i1 %tobool.not.i, label %invoke.cont, label %if.then.i

if.then.i:                                        ; preds = %entry
  %call2.i = tail call ptr @strerror(i32 noundef %call.i) #12
  %0 = load ptr, ptr @stderr, align 8
  %call3.i = tail call i32 (ptr, ptr, ...) @fprintf(ptr noundef %0, ptr noundef nonnull @.str.3, ptr noundef %call2.i, ptr noundef nonnull @.str.5, i32 noundef 109) #11
  %1 = load ptr, ptr @stderr, align 8
  %call4.i = tail call i32 @fflush(ptr noundef %1)
  invoke void @_ZN3zmq9zmq_abortEPKc(ptr noundef %call2.i)
          to label %invoke.cont unwind label %terminate.lpad

invoke.cont:                                      ; preds = %entry, %if.then.i
  %call.i1 = tail call i32 @pthread_mutex_unlock(ptr noundef nonnull %_sync) #12
  %tobool.not.i2 = icmp eq i32 %call.i1, 0
  br i1 %tobool.not.i2, label %invoke.cont3, label %if.then.i3

if.then.i3:                                       ; preds = %invoke.cont
  %call2.i4 = tail call ptr @strerror(i32 noundef %call.i1) #12
  %2 = load ptr, ptr @stderr, align 8
  %call3.i5 = tail call i32 (ptr, ptr, ...) @fprintf(ptr noundef %2, ptr noundef nonnull @.str.3, ptr noundef %call2.i4, ptr noundef nonnull @.str.5, i32 noundef 125) #11
  %3 = load ptr, ptr @stderr, align 8
  %call4.i6 = tail call i32 @fflush(ptr noundef %3)
  invoke void @_ZN3zmq9zmq_abortEPKc(ptr noundef %call2.i4)
          to label %invoke.cont3 unwind label %terminate.lpad

invoke.cont3:                                     ; preds = %invoke.cont, %if.then.i3
  tail call void @_ZN3zmq7mutex_tD2Ev(ptr noundef nonnull align 8 dereferenceable(44) %_sync) #12
  %_signaler = getelementptr inbounds i8, ptr %this, i64 104
  tail call void @_ZN3zmq10signaler_tD1Ev(ptr noundef nonnull align 4 dereferenceable(12) %_signaler) #12
  %_queue.i = getelementptr inbounds i8, ptr %this, i64 16
  %_end_chunk.i.i = getelementptr inbounds i8, ptr %this, i64 48
  %4 = load ptr, ptr %_queue.i, align 8
  %5 = load ptr, ptr %_end_chunk.i.i, align 8
  %cmp1.i.i = icmp eq ptr %4, %5
  br i1 %cmp1.i.i, label %_ZN3zmq7ypipe_tINS_9command_tELi16EED2Ev.exit, label %if.end.i.i

if.end.i.i:                                       ; preds = %invoke.cont3, %if.end.i.i
  %6 = phi ptr [ %8, %if.end.i.i ], [ %4, %invoke.cont3 ]
  %next.i.i = getelementptr inbounds i8, ptr %6, i64 1032
  %7 = load ptr, ptr %next.i.i, align 8
  store ptr %7, ptr %_queue.i, align 8
  tail call void @free(ptr noundef %6) #12
  %8 = load ptr, ptr %_queue.i, align 8
  %9 = load ptr, ptr %_end_chunk.i.i, align 8
  %cmp.i.i = icmp eq ptr %8, %9
  br i1 %cmp.i.i, label %_ZN3zmq7ypipe_tINS_9command_tELi16EED2Ev.exit, label %if.end.i.i, !llvm.loop !4

_ZN3zmq7ypipe_tINS_9command_tELi16EED2Ev.exit:    ; preds = %if.end.i.i, %invoke.cont3
  %.lcssa.i.i = phi ptr [ %4, %invoke.cont3 ], [ %8, %if.end.i.i ]
  tail call void @free(ptr noundef %.lcssa.i.i) #12
  %_spare_chunk.i.i = getelementptr inbounds i8, ptr %this, i64 64
  %10 = atomicrmw xchg ptr %_spare_chunk.i.i, i64 0 acq_rel, align 8
  %atomic-temp.i.0.i.i.i.i = inttoptr i64 %10 to ptr
  tail call void @free(ptr noundef %atomic-temp.i.0.i.i.i.i) #12
  ret void

terminate.lpad:                                   ; preds = %if.then.i3, %if.then.i
  %11 = landingpad { ptr, i32 }
          catch ptr null
  %12 = extractvalue { ptr, i32 } %11, 0
  tail call void @__clang_call_terminate(ptr %12) #13
  unreachable
}